(dp0
S'DRT2'
p1
(lp2
(S'A'
p3
(lp4
I1471
tp5
a(S''
p6
g6
F-1.0
tp7
ag7
ag7
ag7
ag7
ag7
ag7
ag7
ag7
ag7
ag7
ag7
ag7
ag7
ag7
ag7
ag7
ag7
ag7
ag7
ag7
ag7
ag7
ag7
ag7
ag7
ag7
ag7
ag7
asS'DRT_demo'
p8
(lp9
(S'a'
p10
(lp11
I1714
tp12
a(g6
g6
F-1.0
tp13
ag13
ag13
ag13
ag13
ag13
ag13
ag13
ag13
ag13
ag13
ag13
ag13
ag13
ag13
ag13
ag13
ag13
ag13
ag13
ag13
ag13
ag13
ag13
ag13
ag13
ag13
ag13
ag13
asS'DRT'
p14
(lp15
(S'a'
p16
(lp17
I1193
tp18
a(S'c'
p19
(lp20
I177
tp21
a(S'a'
p22
(lp23
I127
tp24
a(S'b'
p25
(lp26
I113
tp27
ag7
ag7
ag7
ag7
ag7
ag7
ag7
ag7
ag7
ag7
ag7
ag7
ag7
ag7
ag7
ag7
ag7
ag7
ag7
ag7
ag7
ag7
ag7
ag7
ag7
ag7
as.